(dp0
S'lmnop'
p1
S'l'
p2
sS'YZ~'
p3
S'y'
p4
sS'ghi='
p5
S'='
p6
sS'GHIJ'
p7
S'~'
p8
sS"'()+"
p9
S'+'
p10
sS'234'
p11
S'n'
p12
sS'?_|'
p13
S'Y'
p14
sS'DEF'
p15
S'S'
p16
sS'vwxyz^'
p17
S'^'
p18
sS'abc'
p19
S'a'
p20
sS'{}[]'
p21
S'['
p22
sS'-'
p23
g23
sS'/\\@'
p24
S'@'
p25
sS'STUVW'
p26
S'|'
p27
sS'890>'
p28
S'>'
p29
sS':'
p30
g30
sS'qrstu'
p31
S'L'
p32
sS'$%&'
p33
S'I'
p34
sS'ABC'
p35
S's'
p36
sS'567'
p37
S'N'
p38
sS'!"#'
p39
S'i'
p40
sS'OPQR'
p41
S'B'
p42
sS'KLMN'
p43
S'b'
p44
sS'def'
p45
S'A'
p46
s.